BL51 BANKED LINKER/LOCATER V6.22                                                        04/29/2020  12:32:07  PAGE 1


BL51 BANKED LINKER/LOCATER V6.22, INVOKED BY:
C:\KEIL_V5\C51\BIN\BL51.EXE .\Objects\DEBUG.obj, .\Objects\GPIO.obj, .\Objects\main.obj, .\Objects\CDC.obj, .\Objects\UA
>> RT1.obj TO .\Objects\CDC PRINT (.\Listings\CDC.m51) RAMSIZE (256)


MEMORY MODEL: LARGE


INPUT MODULES INCLUDED:
  .\Objects\DEBUG.obj (DEBUG)
  .\Objects\GPIO.obj (GPIO)
  .\Objects\main.obj (MAIN)
  .\Objects\CDC.obj (CDC)
  .\Objects\UART1.obj (UART1)
  C:\KEIL_V5\C51\LIB\C51L.LIB (?C_STARTUP)
  C:\KEIL_V5\C51\LIB\C51L.LIB (?C?COPY)
  C:\KEIL_V5\C51\LIB\C51L.LIB (?C?CLDPTR)
  C:\KEIL_V5\C51\LIB\C51L.LIB (?C?CLDOPTR)
  C:\KEIL_V5\C51\LIB\C51L.LIB (?C?IILDX)
  C:\KEIL_V5\C51\LIB\C51L.LIB (?C?ULDIV)
  C:\KEIL_V5\C51\LIB\C51L.LIB (?C?LSTXDATA)
  C:\KEIL_V5\C51\LIB\C51L.LIB (?C?LSTKXDATA)
  C:\KEIL_V5\C51\LIB\C51L.LIB (PRINTF)
  C:\KEIL_V5\C51\LIB\C51L.LIB (?C_INIT)
  C:\KEIL_V5\C51\LIB\C51L.LIB (?C?CSTPTR)
  C:\KEIL_V5\C51\LIB\C51L.LIB (?C?PLDIXDATA)
  C:\KEIL_V5\C51\LIB\C51L.LIB (?C?PSTXDATA)
  C:\KEIL_V5\C51\LIB\C51L.LIB (?C?CCASE)
  C:\KEIL_V5\C51\LIB\C51L.LIB (PUTCHAR)


LINK MAP OF MODULE:  .\Objects\CDC (DEBUG)


            TYPE    BASE      LENGTH    RELOCATION   SEGMENT NAME
            -----------------------------------------------------

            * * * * * * *   D A T A   M E M O R Y   * * * * * * *
            REG     0000H     0008H     ABSOLUTE     "REG BANK 0"
            REG     0008H     0008H     ABSOLUTE     "REG BANK 1"
            DATA    0010H     000FH     UNIT         _DATA_GROUP_
                    001FH     0001H                  *** GAP ***
            BIT     0020H.0   0003H.3   UNIT         _BIT_GROUP_
                    0023H.3   0000H.5                *** GAP ***
            IDATA   0024H     0046H     UNIT         ?ID?CDC
            IDATA   006AH     0001H     UNIT         ?STACK

            * * * * * * *  X D A T A   M E M O R Y  * * * * * * *
            XDATA   0000H     0040H     ABSOLUTE     
            XDATA   0040H     0008H     ABSOLUTE     
            XDATA   0048H     0017H     UNIT         ?XD?CDC
                    005FH     0021H                  *** GAP ***
            XDATA   0080H     0080H     ABSOLUTE     
            XDATA   0100H     007CH     UNIT         _XDATA_GROUP_

            * * * * * * *   C O D E   M E M O R Y   * * * * * * *
            CODE    0000H     0003H     ABSOLUTE     
            CODE    0003H     002EH     UNIT         ?PR?GPIOINTERRUPT?GPIO
BL51 BANKED LINKER/LOCATER V6.22                                                      04/29/2020  12:32:07  PAGE 2


            CODE    0031H     0012H     UNIT         ?PR?CFGFSYS?DEBUG
            CODE    0043H     0003H     ABSOLUTE     
            CODE    0046H     000CH     UNIT         ?PR?UART1INIT?UART1
                    0052H     0001H                  *** GAP ***
            CODE    0053H     0003H     ABSOLUTE     
            CODE    0056H     0009H     UNIT         ?PR?GPIOINTERRUPTCFG?GPIO
            CODE    005FH     0004H     UNIT         ?PR?CH554UART0ALTER?DEBUG
            CODE    0063H     0003H     ABSOLUTE     
            CODE    0066H     057FH     UNIT         ?PR?DEVICEINTERRUPT?CDC
            CODE    05E5H     0365H     UNIT         ?PR?PRINTF?PRINTF
            CODE    094AH     02B5H     UNIT         ?C?LIB_CODE
            CODE    0BFFH     00DBH     UNIT         ?PR?CDC?CDC
            CODE    0CDAH     00A6H     UNIT         ?CO?CDC
            CODE    0D80H     0095H     UNIT         ?PR?MINITSTDIO?DEBUG
            CODE    0E15H     008CH     UNIT         ?C_C51STARTUP
            CODE    0EA1H     0059H     UNIT         ?PR?_PORT1CFG?GPIO
            CODE    0EFAH     0059H     UNIT         ?PR?_PORT3CFG?GPIO
            CODE    0F53H     0052H     UNIT         ?PR?_CONFIG_UART1?CDC
            CODE    0FA5H     002BH     UNIT         ?PR?UART1_ISR?CDC
            CODE    0FD0H     0027H     UNIT         ?PR?PUTCHAR?PUTCHAR
            CODE    0FF7H     0022H     UNIT         ?PR?USBDEVICEENDPOINTCFG?CDC
            CODE    1019H     001DH     UNIT         ?C_INITSEG
            CODE    1036H     0018H     UNIT         ?PR?USBDEVICECFG?CDC
            CODE    104EH     0017H     UNIT         ?PR?_MDELAYMS?DEBUG
            CODE    1065H     0017H     UNIT         ?PR?_CH554WDTMODESELECT?DEBUG
            CODE    107CH     0013H     UNIT         ?CO?GPIO
            CODE    108FH     0011H     UNIT         ?PR?USBDEVICEINTCFG?CDC
            CODE    10A0H     000EH     UNIT         ?PR?_MDELAYUS?DEBUG
            CODE    10AEH     0008H     UNIT         ?PR?CH554UART0RCVBYTE?DEBUG
            CODE    10B6H     0008H     UNIT         ?PR?_CH554UART0SENDBYTE?DEBUG
            CODE    10BEH     0008H     UNIT         ?PR?CH554UART1RCVBYTE?UART1
            CODE    10C6H     0008H     UNIT         ?PR?_CH554UART1SENDBYTE?UART1
            CODE    10CEH     0003H     UNIT         ?PR?_CH554WDTFEED?DEBUG
            CODE    10D1H     0003H     UNIT         ?PR?MAIN?MAIN



OVERLAY MAP OF MODULE:   .\Objects\CDC (DEBUG)


SEGMENT                                  BIT_GROUP          DATA_GROUP          XDATA_GROUP
  +--> CALLED SEGMENT                 START    LENGTH     START    LENGTH     START    LENGTH
---------------------------------------------------------------------------------------------
?PR?GPIOINTERRUPT?GPIO                -----    -----      -----    -----      -----    -----
  +--> ?CO?GPIO
  +--> ?PR?PRINTF?PRINTF

?PR?PRINTF?PRINTF                     0022H.2  0001H.1    001AH    0005H      0154H    0028H
  +--> ?PR?PUTCHAR?PUTCHAR

*** NEW ROOT ***************************************************

?PR?DEVICEINTERRUPT?CDC               -----    -----      -----    -----      0128H    0002H
  +--> ?CO?CDC
  +--> ?PR?PRINTF?PRINTF
  +--> ?PR?_CONFIG_UART1?CDC

BL51 BANKED LINKER/LOCATER V6.22                                                      04/29/2020  12:32:07  PAGE 3


?PR?_CONFIG_UART1?CDC                 -----    -----      -----    -----      012AH    0004H

*** NEW ROOT ***************************************************

?C_C51STARTUP                         -----    -----      -----    -----      -----    -----
  +--> ?PR?MAIN?MAIN
  +--> ?C_INITSEG

?PR?MAIN?MAIN                         -----    -----      -----    -----      -----    -----
  +--> ?PR?CDC?CDC

?PR?CDC?CDC                           -----    -----      -----    -----      0152H    0002H
  +--> ?PR?CFGFSYS?DEBUG
  +--> ?PR?_MDELAYMS?DEBUG
  +--> ?PR?MINITSTDIO?DEBUG
  +--> ?PR?UART1INIT?UART1
  +--> ?CO?CDC
  +--> ?PR?PRINTF?PRINTF
  +--> ?PR?USBDEVICECFG?CDC
  +--> ?PR?USBDEVICEENDPOINTCFG?CDC
  +--> ?PR?USBDEVICEINTCFG?CDC
  +--> ?PR?_CH554UART1SENDBYTE?UART1

?PR?_MDELAYMS?DEBUG                   -----    -----      -----    -----      -----    -----
  +--> ?PR?_MDELAYUS?DEBUG

?PR?MINITSTDIO?DEBUG                  -----    -----      -----    -----      0154H    0005H



SYMBOL TABLE OF MODULE:  .\Objects\CDC (DEBUG)

  VALUE           TYPE          NAME
  ----------------------------------

  -------         MODULE        DEBUG
  C:0000H         SYMBOL        _ICE_DUMMY_
  D:0090H         PUBLIC        P1
  D:00B0H         PUBLIC        P3
  C:1065H         PUBLIC        _CH554WDTModeSelect
  C:0D80H         PUBLIC        mInitSTDIO
  D:00E8H         PUBLIC        IE_EX
  D:00A8H         PUBLIC        IE
  C:10CEH         PUBLIC        _CH554WDTFeed
  C:005FH         PUBLIC        CH554UART0Alter
  D:00B8H         PUBLIC        IP
  B:0098H.0       PUBLIC        RI
  B:0098H.1       PUBLIC        TI
  D:00FFH         PUBLIC        WDOG_COUNT
  D:00B9H         PUBLIC        CLOCK_CFG
  C:104EH         PUBLIC        _mDelaymS
  D:00D8H         PUBLIC        USB_INT_FG
  C:10A0H         PUBLIC        _mDelayuS
  B:00C8H.5       PUBLIC        RCLK
  B:00C8H.4       PUBLIC        TCLK
  D:0099H         PUBLIC        SBUF
  D:0087H         PUBLIC        PCON
BL51 BANKED LINKER/LOCATER V6.22                                                      04/29/2020  12:32:07  PAGE 4


  D:0098H         PUBLIC        SCON
  D:0089H         PUBLIC        TMOD
  D:0088H         PUBLIC        TCON
  C:0031H         PUBLIC        CfgFsys
  D:00F8H         PUBLIC        SPI0_STAT
  C:10B6H         PUBLIC        _CH554UART0SendByte
  D:008DH         PUBLIC        TH1
  B:0098H.7       PUBLIC        SM0
  B:0098H.6       PUBLIC        SM1
  B:0098H.5       PUBLIC        SM2
  B:0088H.6       PUBLIC        TR1
  C:10AEH         PUBLIC        CH554UART0RcvByte
  D:0080H         PUBLIC        ADC_CTRL
  D:00A1H         PUBLIC        SAFE_MOD
  D:00B1H         PUBLIC        GLOBAL_CFG
  D:00C0H         PUBLIC        SCON1
  B:0098H.4       PUBLIC        REN
  D:00C9H         PUBLIC        T2MOD
  D:00C8H         PUBLIC        T2CON
  D:00C6H         PUBLIC        PIN_FUNC
  D:00D0H         PUBLIC        PSW
  -------         PROC          CFGFSYS
  C:0031H         LINE#         25
  C:0031H         LINE#         26
  C:0031H         LINE#         33
  C:0034H         LINE#         34
  C:0037H         LINE#         42
  C:003FH         LINE#         56
  C:0042H         LINE#         57
  -------         ENDPROC       CFGFSYS
  -------         PROC          _MDELAYUS
  D:0006H         SYMBOL        n
  C:10A0H         LINE#         66
  C:10A0H         LINE#         67
  C:10A0H         LINE#         79
  C:10A4H         LINE#         80
  C:10A6H         LINE#         101
  C:10ABH         LINE#         102
  C:10ADH         LINE#         103
  -------         ENDPROC       _MDELAYUS
  -------         PROC          _MDELAYMS
  D:0004H         SYMBOL        n
  C:104EH         LINE#         112
  C:1052H         LINE#         113
  C:1052H         LINE#         114
  C:1056H         LINE#         119
  C:105DH         LINE#         121
  C:1062H         LINE#         122
  C:1064H         LINE#         123
  -------         ENDPROC       _MDELAYMS
  -------         PROC          CH554UART0ALTER
  C:005FH         LINE#         132
  C:005FH         LINE#         133
  C:005FH         LINE#         134
  C:0062H         LINE#         135
  -------         ENDPROC       CH554UART0ALTER
  -------         PROC          MINITSTDIO
BL51 BANKED LINKER/LOCATER V6.22                                                      04/29/2020  12:32:07  PAGE 5


  -------         DO            
  X:0154H         SYMBOL        x
  X:0158H         SYMBOL        x2
  -------         ENDDO         
  C:0D80H         LINE#         145
  C:0D80H         LINE#         146
  C:0D80H         LINE#         150
  C:0D82H         LINE#         151
  C:0D84H         LINE#         152
  C:0D86H         LINE#         154
  C:0D88H         LINE#         155
  C:0D8AH         LINE#         156
  C:0D8DH         LINE#         157
  C:0D97H         LINE#         158
  C:0DB3H         LINE#         159
  C:0DD0H         LINE#         160
  C:0DF8H         LINE#         162
  C:0E00H         LINE#         163
  C:0E03H         LINE#         164
  C:0E0EH         LINE#         165
  C:0E10H         LINE#         166
  C:0E12H         LINE#         167
  C:0E14H         LINE#         168
  -------         ENDPROC       MINITSTDIO
  -------         PROC          CH554UART0RCVBYTE
  C:10AEH         LINE#         177
  C:10AEH         LINE#         178
  C:10AEH         LINE#         179
  C:10B1H         LINE#         180
  C:10B3H         LINE#         181
  C:10B5H         LINE#         182
  -------         ENDPROC       CH554UART0RCVBYTE
  -------         PROC          _CH554UART0SENDBYTE
  D:0007H         SYMBOL        SendDat
  C:10B6H         LINE#         191
  C:10B6H         LINE#         192
  C:10B6H         LINE#         193
  C:10B8H         LINE#         194
  C:10BBH         LINE#         195
  C:10BDH         LINE#         196
  -------         ENDPROC       _CH554UART0SENDBYTE
  -------         PROC          _CH554WDTMODESELECT
  D:0007H         SYMBOL        mode
  C:1065H         LINE#         207
  C:1065H         LINE#         208
  C:1065H         LINE#         209
  C:1068H         LINE#         210
  C:106BH         LINE#         211
  C:106EH         LINE#         212
  C:1071H         LINE#         213
  C:1073H         LINE#         214
  C:1076H         LINE#         215
  C:1079H         LINE#         216
  C:107BH         LINE#         217
  -------         ENDPROC       _CH554WDTMODESELECT
  -------         PROC          _CH554WDTFEED
  D:0007H         SYMBOL        tim
BL51 BANKED LINKER/LOCATER V6.22                                                      04/29/2020  12:32:07  PAGE 6


  C:10CEH         LINE#         228
  C:10CEH         LINE#         229
  C:10CEH         LINE#         230
  C:10D0H         LINE#         231
  -------         ENDPROC       _CH554WDTFEED
  -------         ENDMOD        DEBUG

  -------         MODULE        GPIO
  C:0000H         SYMBOL        _ICE_DUMMY_
  D:0090H         PUBLIC        P1
  D:00B0H         PUBLIC        P3
  C:0003H         PUBLIC        GPIOInterrupt
  D:00E8H         PUBLIC        IE_EX
  D:00A8H         PUBLIC        IE
  C:0056H         PUBLIC        GPIOInterruptCfg
  D:00B8H         PUBLIC        IP
  D:00C7H         PUBLIC        GPIO_IE
  B:00E8H.6       PUBLIC        IE_GPIO
  D:00D8H         PUBLIC        USB_INT_FG
  D:0098H         PUBLIC        SCON
  D:0088H         PUBLIC        TCON
  D:0092H         PUBLIC        P1_MOD_OC
  D:0096H         PUBLIC        P3_MOD_OC
  D:00F8H         PUBLIC        SPI0_STAT
  D:0093H         PUBLIC        P1_DIR_PU
  D:0097H         PUBLIC        P3_DIR_PU
  D:0080H         PUBLIC        ADC_CTRL
  D:00C0H         PUBLIC        SCON1
  D:00C8H         PUBLIC        T2CON
  C:0EA1H         PUBLIC        _Port1Cfg
  C:0EFAH         PUBLIC        _Port3Cfg
  D:00C6H         PUBLIC        PIN_FUNC
  D:00D0H         PUBLIC        PSW
  -------         PROC          _PORT1CFG
  D:0007H         SYMBOL        Mode
  D:0005H         SYMBOL        Pin
  C:0EA1H         LINE#         28
  C:0EA1H         LINE#         29
  C:0EA1H         LINE#         30
  C:0EAFH         LINE#         31
  C:0EAFH         LINE#         32
  C:0EBEH         LINE#         33
  C:0EC0H         LINE#         34
  C:0EC1H         LINE#         35
  C:0EC1H         LINE#         36
  C:0ED1H         LINE#         37
  C:0ED1H         LINE#         38
  C:0ED3H         LINE#         39
  C:0ED3H         LINE#         40
  C:0EE2H         LINE#         41
  C:0EE6H         LINE#         42
  C:0EE7H         LINE#         43
  C:0EE7H         LINE#         44
  C:0EF6H         LINE#         45
  C:0EF9H         LINE#         46
  C:0EF9H         LINE#         47
  C:0EF9H         LINE#         48
BL51 BANKED LINKER/LOCATER V6.22                                                      04/29/2020  12:32:07  PAGE 7


  C:0EF9H         LINE#         49
  C:0EF9H         LINE#         50
  -------         ENDPROC       _PORT1CFG
  -------         PROC          _PORT3CFG
  D:0007H         SYMBOL        Mode
  D:0005H         SYMBOL        Pin
  C:0EFAH         LINE#         63
  C:0EFAH         LINE#         64
  C:0EFAH         LINE#         65
  C:0F08H         LINE#         66
  C:0F08H         LINE#         67
  C:0F17H         LINE#         68
  C:0F19H         LINE#         69
  C:0F1AH         LINE#         70
  C:0F1AH         LINE#         71
  C:0F2AH         LINE#         72
  C:0F2AH         LINE#         73
  C:0F2CH         LINE#         74
  C:0F2CH         LINE#         75
  C:0F3BH         LINE#         76
  C:0F3FH         LINE#         77
  C:0F40H         LINE#         78
  C:0F40H         LINE#         79
  C:0F4FH         LINE#         80
  C:0F52H         LINE#         81
  C:0F52H         LINE#         82
  C:0F52H         LINE#         83
  C:0F52H         LINE#         84
  C:0F52H         LINE#         85
  -------         ENDPROC       _PORT3CFG
  -------         PROC          GPIOINTERRUPTCFG
  C:0056H         LINE#         94
  C:0056H         LINE#         95
  C:0056H         LINE#         96
  C:0059H         LINE#         99
  C:005CH         LINE#         103
  C:005EH         LINE#         104
  -------         ENDPROC       GPIOINTERRUPTCFG
  -------         PROC          GPIOINTERRUPT
  C:0003H         LINE#         111
  C:0010H         LINE#         114
  C:0026H         LINE#         116
  -------         ENDPROC       GPIOINTERRUPT
  -------         ENDMOD        GPIO

  -------         MODULE        MAIN
  C:0000H         SYMBOL        _ICE_DUMMY_
  D:0090H         PUBLIC        P1
  D:00B0H         PUBLIC        P3
  D:00E8H         PUBLIC        IE_EX
  D:00A8H         PUBLIC        IE
  D:00B8H         PUBLIC        IP
  D:00D8H         PUBLIC        USB_INT_FG
  C:10D1H         PUBLIC        main
  D:0098H         PUBLIC        SCON
  D:0088H         PUBLIC        TCON
  D:00F8H         PUBLIC        SPI0_STAT
BL51 BANKED LINKER/LOCATER V6.22                                                      04/29/2020  12:32:07  PAGE 8


  D:0080H         PUBLIC        ADC_CTRL
  D:00C0H         PUBLIC        SCON1
  D:00C8H         PUBLIC        T2CON
  D:00D0H         PUBLIC        PSW
  -------         PROC          MAIN
  C:10D1H         LINE#         20
  C:10D1H         LINE#         22
  -------         ENDPROC       MAIN
  -------         ENDMOD        MAIN

  -------         MODULE        CDC
  C:0000H         SYMBOL        _ICE_DUMMY_
  C:108FH         PUBLIC        USBDeviceIntCfg
  I:0024H         PUBLIC        Uart_Input_Point
  D:0090H         PUBLIC        P1
  I:0025H         PUBLIC        Uart_Output_Point
  D:00E2H         PUBLIC        USB_CTRL
  D:00B0H         PUBLIC        P3
  X:0048H         PUBLIC        UsbConfig
  B:00A8H.7       PUBLIC        EA
  C:0F53H         PUBLIC        _Config_Uart1
  B:00D8H.0       PUBLIC        UIF_BUS_RST
  I:0026H         PUBLIC        UpPoint2_Busy
  X:0049H         PUBLIC        Count
  D:00E8H         PUBLIC        IE_EX
  D:00A8H         PUBLIC        IE
  I:0027H         PUBLIC        USBByteCount
  D:00DDH         PUBLIC        UEP0_T_LEN
  D:00E3H         PUBLIC        USB_DEV_AD
  D:00D3H         PUBLIC        UEP1_T_LEN
  D:00D5H         PUBLIC        UEP2_T_LEN
  C:0D07H         PUBLIC        CfgDesc
  D:00A2H         PUBLIC        XBUS_AUX
  C:0D62H         PUBLIC        Prod_Des
  D:00B8H         PUBLIC        IP
  B:00D8H.6       PUBLIC        U_TOG_OK
  C:0FA5H         PUBLIC        Uart1_ISR
  C:0D4AH         PUBLIC        LangDes
  C:0CF5H         PUBLIC        DevDesc
  D:00C2H         PUBLIC        SBAUD1
  B:00C0H.0       PUBLIC        U1RI
  D:00D8H         PUBLIC        USB_INT_FG
  C:0066H         PUBLIC        DeviceInterrupt
  D:00E1H         PUBLIC        USB_INT_EN
  B:00D8H.1       PUBLIC        UIF_TRANSFER
  D:0087H         PUBLIC        PCON
  D:00DCH         PUBLIC        UEP0_CTRL
  D:00D2H         PUBLIC        UEP1_CTRL
  D:00D4H         PUBLIC        UEP2_CTRL
  D:0098H         PUBLIC        SCON
  X:004AH         PUBLIC        SetupLen
  D:00D6H         PUBLIC        UEP3_CTRL
  D:0088H         PUBLIC        TCON
  D:00DBH         PUBLIC        USB_RX_LEN
  D:00F8H         PUBLIC        SPI0_STAT
  D:00DAH         PUBLIC        USB_MIS_ST
  X:004CH         PUBLIC        SetupReq
BL51 BANKED LINKER/LOCATER V6.22                                                      04/29/2020  12:32:07  PAGE 9


  D:00D9H         PUBLIC        USB_INT_ST
  D:00A9H         PUBLIC        WAKE_CTRL
  I:0028H         PUBLIC        UartByteCount
  X:0000H         PUBLIC        Ep0Buffer
  I:0029H         PUBLIC        Receive_Uart_Buf
  X:0040H         PUBLIC        Ep1Buffer
  X:0080H         PUBLIC        Ep2Buffer
  C:0D4EH         PUBLIC        SerDes
  C:0BFFH         PUBLIC        CDC
  D:00D1H         PUBLIC        UDEV_CTRL
  D:00ECH         PUBLIC        UEP0_DMA
  D:00EEH         PUBLIC        UEP1_DMA
  D:00E4H         PUBLIC        UEP2_DMA
  C:1036H         PUBLIC        USBDeviceCfg
  I:0069H         PUBLIC        USBBufOutPoint
  B:00E8H.2       PUBLIC        IE_USB
  X:004DH         PUBLIC        SetupReqBuf
  B:00E8H.4       PUBLIC        IE_UART1
  D:0080H         PUBLIC        ADC_CTRL
  D:00A1H         PUBLIC        SAFE_MOD
  X:0055H         PUBLIC        LineCoding
  D:00C1H         PUBLIC        SBUF1
  X:005CH         PUBLIC        pDescr
  D:00C0H         PUBLIC        SCON1
  D:00C8H         PUBLIC        T2CON
  B:00D8H.2       PUBLIC        UIF_SUSPEND
  D:00EBH         PUBLIC        UEP2_3_MOD
  D:00EAH         PUBLIC        UEP4_1_MOD
  C:0D76H         PUBLIC        Manuf_Des
  C:0FF7H         PUBLIC        USBDeviceEndPointCfg
  D:00D0H         PUBLIC        PSW
  -------         PROC          USBDEVICECFG
  C:1036H         LINE#         87
  C:1036H         LINE#         88
  C:1039H         LINE#         89
  C:103CH         LINE#         90
  C:103FH         LINE#         91
  C:1041H         LINE#         94
  C:1044H         LINE#         95
  C:1047H         LINE#         96
  C:104AH         LINE#         97
  C:104DH         LINE#         98
  -------         ENDPROC       USBDEVICECFG
  -------         PROC          USBDEVICEINTCFG
  C:108FH         LINE#         110
  C:108FH         LINE#         111
  C:1092H         LINE#         112
  C:1095H         LINE#         113
  C:1098H         LINE#         114
  C:109BH         LINE#         115
  C:109DH         LINE#         116
  C:109FH         LINE#         117
  -------         ENDPROC       USBDEVICEINTCFG
  -------         PROC          USBDEVICEENDPOINTCFG
  C:0FF7H         LINE#         125
  C:0FF7H         LINE#         126
  C:0FFDH         LINE#         127
BL51 BANKED LINKER/LOCATER V6.22                                                      04/29/2020  12:32:07  PAGE 10


  C:1003H         LINE#         128
  C:1006H         LINE#         129
  C:1009H         LINE#         131
  C:100CH         LINE#         132
  C:1012H         LINE#         133
  C:1015H         LINE#         134
  C:1018H         LINE#         135
  -------         ENDPROC       USBDEVICEENDPOINTCFG
  -------         PROC          _CONFIG_UART1
  D:0001H         SYMBOL        cfg_uart
  -------         DO            
  X:012AH         SYMBOL        uart1_buad
  -------         ENDDO         
  C:0F53H         LINE#         145
  C:0F53H         LINE#         146
  C:0F5DH         LINE#         147
  C:0F67H         LINE#         148
  C:0F71H         LINE#         149
  C:0F7BH         LINE#         150
  C:0F82H         LINE#         151
  C:0F84H         LINE#         152
  C:0FA2H         LINE#         153
  C:0FA4H         LINE#         154
  -------         ENDPROC       _CONFIG_UART1
  -------         PROC          DEVICEINTERRUPT
  -------         DO            
  X:0128H         SYMBOL        len
  -------         ENDDO         
  C:0066H         LINE#         162
  C:0083H         LINE#         164
  C:0089H         LINE#         165
  C:00ACH         LINE#         166
  C:00ACH         LINE#         167
  C:00AFH         LINE#         168
  C:00B7H         LINE#         169
  C:00BAH         LINE#         170
  C:00BAH         LINE#         171
  C:00BDH         LINE#         172
  C:00C5H         LINE#         173
  C:00C9H         LINE#         174
  C:00C9H         LINE#         175
  C:00CCH         LINE#         176
  C:00CCH         LINE#         177
  C:00D2H         LINE#         178
  C:00D6H         LINE#         179
  C:00DAH         LINE#         180
  C:00E2H         LINE#         181
  C:00E2H         LINE#         182
  C:00E5H         LINE#         183
  C:00E5H         LINE#         184
  C:00EFH         LINE#         185
  C:00FEH         LINE#         186
  C:0112H         LINE#         187
  C:0119H         LINE#         188
  C:0121H         LINE#         189
  C:0129H         LINE#         190
  C:0141H         LINE#         191
BL51 BANKED LINKER/LOCATER V6.22                                                      04/29/2020  12:32:07  PAGE 11


  C:0141H         LINE#         192
  C:014FH         LINE#         193
  C:0158H         LINE#         194
  C:016FH         LINE#         195
  C:016FH         LINE#         196
  C:016FH         LINE#         197
  C:016FH         LINE#         198
  C:0172H         LINE#         199
  C:0172H         LINE#         200
  C:0172H         LINE#         201
  C:0172H         LINE#         202
  C:0172H         LINE#         203
  C:0172H         LINE#         206
  C:0172H         LINE#         207
  C:0172H         LINE#         208
  C:01A6H         LINE#         209
  C:01A6H         LINE#         210
  C:01B8H         LINE#         211
  C:01B8H         LINE#         212
  C:01C6H         LINE#         213
  C:01CFH         LINE#         214
  C:01D2H         LINE#         215
  C:01D2H         LINE#         216
  C:01E0H         LINE#         217
  C:01E9H         LINE#         218
  C:01EBH         LINE#         219
  C:01EBH         LINE#         220
  C:01F2H         LINE#         221
  C:0200H         LINE#         222
  C:0209H         LINE#         223
  C:020FH         LINE#         224
  C:021DH         LINE#         225
  C:0226H         LINE#         226
  C:022FH         LINE#         227
  C:0239H         LINE#         228
  C:0239H         LINE#         229
  C:023BH         LINE#         230
  C:0246H         LINE#         231
  C:024FH         LINE#         232
  C:024FH         LINE#         233
  C:0251H         LINE#         234
  C:0251H         LINE#         235
  C:025AH         LINE#         236
  C:025AH         LINE#         237
  C:025AH         LINE#         238
  C:026FH         LINE#         239
  C:0274H         LINE#         240
  C:0274H         LINE#         241
  C:0292H         LINE#         242
  C:02AEH         LINE#         243
  C:02C3H         LINE#         244
  C:02CCH         LINE#         245
  C:02CFH         LINE#         246
  C:02CFH         LINE#         247
  C:02D8H         LINE#         248
  C:02DBH         LINE#         249
  C:02DBH         LINE#         250
BL51 BANKED LINKER/LOCATER V6.22                                                      04/29/2020  12:32:07  PAGE 12


  C:02E3H         LINE#         251
  C:02F5H         LINE#         252
  C:02FDH         LINE#         253
  C:02FDH         LINE#         254
  C:0300H         LINE#         255
  C:0300H         LINE#         256
  C:0308H         LINE#         257
  C:030BH         LINE#         258
  C:030BH         LINE#         259
  C:030BH         LINE#         260
  C:030BH         LINE#         261
  C:0314H         LINE#         262
  C:0324H         LINE#         263
  C:032EH         LINE#         265
  C:032EH         LINE#         266
  C:032EH         LINE#         267
  C:032EH         LINE#         268
  C:0331H         LINE#         269
  C:0331H         LINE#         270
  C:0331H         LINE#         271
  C:0339H         LINE#         272
  C:0350H         LINE#         273
  C:0350H         LINE#         274
  C:0358H         LINE#         275
  C:035BH         LINE#         276
  C:035BH         LINE#         277
  C:035EH         LINE#         278
  C:0361H         LINE#         279
  C:0361H         LINE#         280
  C:0369H         LINE#         281
  C:036CH         LINE#         282
  C:036CH         LINE#         283
  C:036FH         LINE#         284
  C:0372H         LINE#         285
  C:0372H         LINE#         286
  C:037AH         LINE#         287
  C:037DH         LINE#         288
  C:037DH         LINE#         289
  C:0380H         LINE#         290
  C:0383H         LINE#         291
  C:0383H         LINE#         292
  C:0383H         LINE#         293
  C:0386H         LINE#         294
  C:0386H         LINE#         295
  C:0386H         LINE#         296
  C:0386H         LINE#         297
  C:0386H         LINE#         298
  C:0389H         LINE#         299
  C:0389H         LINE#         300
  C:0391H         LINE#         301
  C:03A1H         LINE#         302
  C:03A8H         LINE#         305
  C:03B1H         LINE#         307
  C:03B6H         LINE#         309
  C:03B6H         LINE#         310
  C:03B9H         LINE#         311
  C:03BCH         LINE#         312
BL51 BANKED LINKER/LOCATER V6.22                                                      04/29/2020  12:32:07  PAGE 13


  C:03BFH         LINE#         313
  C:03C2H         LINE#         314
  C:03C5H         LINE#         315
  C:03C8H         LINE#         316
  C:03CBH         LINE#         317
  C:03CEH         LINE#         318
  C:03CEH         LINE#         319
  C:03CEH         LINE#         320
  C:03D1H         LINE#         321
  C:03D1H         LINE#         322
  C:03D1H         LINE#         323
  C:03DEH         LINE#         324
  C:03ECH         LINE#         325
  C:040FH         LINE#         326
  C:040FH         LINE#         327
  C:0417H         LINE#         328
  C:0419H         LINE#         329
  C:0419H         LINE#         330
  C:0421H         LINE#         331
  C:0423H         LINE#         332
  C:0423H         LINE#         333
  C:042BH         LINE#         334
  C:042DH         LINE#         335
  C:042DH         LINE#         336
  C:0435H         LINE#         337
  C:0437H         LINE#         338
  C:0437H         LINE#         339
  C:043FH         LINE#         340
  C:0441H         LINE#         341
  C:0441H         LINE#         342
  C:0449H         LINE#         343
  C:0449H         LINE#         344
  C:0449H         LINE#         345
  C:044BH         LINE#         346
  C:044BH         LINE#         347
  C:044BH         LINE#         348
  C:044BH         LINE#         349
  C:044BH         LINE#         350
  C:044DH         LINE#         351
  C:044DH         LINE#         352
  C:044DH         LINE#         353
  C:044FH         LINE#         354
  C:044FH         LINE#         355
  C:0454H         LINE#         356
  C:0456H         LINE#         357
  C:0469H         LINE#         358
  C:046FH         LINE#         359
  C:0471H         LINE#         360
  C:0476H         LINE#         361
  C:0476H         LINE#         362
  C:0478H         LINE#         363
  C:0478H         LINE#         364
  C:0478H         LINE#         365
  C:047AH         LINE#         366
  C:047AH         LINE#         367
  C:047AH         LINE#         368
  C:047AH         LINE#         369
BL51 BANKED LINKER/LOCATER V6.22                                                      04/29/2020  12:32:07  PAGE 14


  C:0483H         LINE#         370
  C:0483H         LINE#         371
  C:048FH         LINE#         372
  C:0495H         LINE#         373
  C:0498H         LINE#         374
  C:04A4H         LINE#         375
  C:04A6H         LINE#         376
  C:04A6H         LINE#         377
  C:04A8H         LINE#         378
  C:04ABH         LINE#         379
  C:04AEH         LINE#         380
  C:04AEH         LINE#         381
  C:04B1H         LINE#         382
  C:04B1H         LINE#         383
  C:04BCH         LINE#         384
  C:04BCH         LINE#         385
  C:04DAH         LINE#         386
  C:04F6H         LINE#         387
  C:050BH         LINE#         388
  C:0514H         LINE#         389
  C:0516H         LINE#         390
  C:0519H         LINE#         391
  C:051BH         LINE#         392
  C:051BH         LINE#         393
  C:0528H         LINE#         394
  C:0528H         LINE#         395
  C:052AH         LINE#         396
  C:052AH         LINE#         397
  C:052DH         LINE#         398
  C:0530H         LINE#         399
  C:0532H         LINE#         400
  C:0532H         LINE#         401
  C:0532H         LINE#         402
  C:0532H         LINE#         403
  C:053AH         LINE#         404
  C:053DH         LINE#         405
  C:054FH         LINE#         406
  C:0558H         LINE#         407
  C:055BH         LINE#         408
  C:055BH         LINE#         409
  C:055BH         LINE#         410
  C:055DH         LINE#         411
  C:0560H         LINE#         412
  C:0563H         LINE#         413
  C:0563H         LINE#         414
  C:0563H         LINE#         418
  C:0563H         LINE#         419
  C:0563H         LINE#         420
  C:0563H         LINE#         421
  C:0565H         LINE#         422
  C:0565H         LINE#         423
  C:0568H         LINE#         425
  C:0571H         LINE#         427
  C:0574H         LINE#         428
  C:0577H         LINE#         429
  C:057AH         LINE#         430
  C:057DH         LINE#         431
BL51 BANKED LINKER/LOCATER V6.22                                                      04/29/2020  12:32:07  PAGE 15


  C:057FH         LINE#         432
  C:0581H         LINE#         433
  C:0583H         LINE#         434
  C:0587H         LINE#         435
  C:058AH         LINE#         436
  C:058EH         LINE#         437
  C:0591H         LINE#         438
  C:0596H         LINE#         439
  C:0598H         LINE#         440
  C:0598H         LINE#         441
  C:059BH         LINE#         442
  C:059DH         LINE#         443
  C:05A2H         LINE#         445
  C:05ABH         LINE#         447
  C:05B0H         LINE#         449
  C:05B0H         LINE#         450
  C:05B3H         LINE#         451
  C:05B6H         LINE#         452
  C:05B9H         LINE#         453
  C:05BCH         LINE#         454
  C:05BFH         LINE#         455
  C:05C2H         LINE#         456
  C:05C5H         LINE#         457
  C:05C5H         LINE#         458
  C:05C7H         LINE#         459
  C:05CAH         LINE#         461
  C:05CAH         LINE#         462
  -------         ENDPROC       DEVICEINTERRUPT
  -------         PROC          UART1_ISR
  C:0FA5H         LINE#         467
  C:0FAEH         LINE#         468
  C:0FB1H         LINE#         469
  C:0FBAH         LINE#         470
  C:0FBDH         LINE#         471
  C:0FC5H         LINE#         472
  C:0FC7H         LINE#         473
  C:0FC9H         LINE#         474
  C:0FC9H         LINE#         476
  -------         ENDPROC       UART1_ISR
  -------         PROC          CDC
  -------         DO            
  X:0152H         SYMBOL        lenth
  X:0153H         SYMBOL        Uart_Timeout
  -------         ENDDO         
  C:0BFFH         LINE#         482
  C:0BFFH         LINE#         484
  C:0C04H         LINE#         485
  C:0C07H         LINE#         486
  C:0C0EH         LINE#         487
  C:0C11H         LINE#         488
  C:0C14H         LINE#         494
  C:0C1DH         LINE#         496
  C:0C20H         LINE#         497
  C:0C23H         LINE#         498
  C:0C26H         LINE#         499
  C:0C29H         LINE#         500
  C:0C2BH         LINE#         501
BL51 BANKED LINKER/LOCATER V6.22                                                      04/29/2020  12:32:07  PAGE 16


  C:0C2DH         LINE#         503
  C:0C2DH         LINE#         504
  C:0C33H         LINE#         505
  C:0C38H         LINE#         512
  C:0C4AH         LINE#         513
  C:0C4DH         LINE#         514
  C:0C50H         LINE#         515
  C:0C53H         LINE#         516
  C:0C53H         LINE#         518
  C:0C58H         LINE#         519
  C:0C5EH         LINE#         520
  C:0C63H         LINE#         521
  C:0C6AH         LINE#         522
  C:0C71H         LINE#         523
  C:0C7DH         LINE#         524
  C:0C82H         LINE#         525
  C:0C9AH         LINE#         526
  C:0C9EH         LINE#         527
  C:0CA9H         LINE#         529
  C:0CBDH         LINE#         530
  C:0CC6H         LINE#         531
  C:0CCCH         LINE#         532
  C:0CCEH         LINE#         533
  C:0CD0H         LINE#         534
  C:0CD3H         LINE#         535
  C:0CD7H         LINE#         536
  C:0CD7H         LINE#         537
  C:0CD7H         LINE#         538
  C:0CD7H         LINE#         539
  C:0CD7H         LINE#         540
  -------         ENDPROC       CDC
  -------         ENDMOD        CDC

  -------         MODULE        UART1
  C:0000H         SYMBOL        _ICE_DUMMY_
  D:0090H         PUBLIC        P1
  D:00B0H         PUBLIC        P3
  C:0046H         PUBLIC        UART1Init
  D:00E8H         PUBLIC        IE_EX
  D:00A8H         PUBLIC        IE
  D:00B8H         PUBLIC        IP
  D:00C2H         PUBLIC        SBAUD1
  B:00C0H.0       PUBLIC        U1RI
  B:00C0H.1       PUBLIC        U1TI
  D:00D8H         PUBLIC        USB_INT_FG
  D:0098H         PUBLIC        SCON
  D:0088H         PUBLIC        TCON
  B:00C0H.5       PUBLIC        U1SMOD
  D:00F8H         PUBLIC        SPI0_STAT
  C:10C6H         PUBLIC        _CH554UART1SendByte
  B:00C0H.7       PUBLIC        U1SM0
  C:10BEH         PUBLIC        CH554UART1RcvByte
  D:0080H         PUBLIC        ADC_CTRL
  D:00C1H         PUBLIC        SBUF1
  D:00C0H         PUBLIC        SCON1
  D:00C8H         PUBLIC        T2CON
  B:00C0H.4       PUBLIC        U1REN
BL51 BANKED LINKER/LOCATER V6.22                                                      04/29/2020  12:32:07  PAGE 17


  D:00D0H         PUBLIC        PSW
  -------         PROC          UART1INIT
  C:0046H         LINE#         24
  C:0046H         LINE#         25
  C:0046H         LINE#         26
  C:0048H         LINE#         27
  C:004AH         LINE#         28
  C:004CH         LINE#         29
  C:004FH         LINE#         30
  C:0051H         LINE#         39
  -------         ENDPROC       UART1INIT
  -------         PROC          CH554UART1RCVBYTE
  C:10BEH         LINE#         47
  C:10BEH         LINE#         48
  C:10BEH         LINE#         49
  C:10C1H         LINE#         50
  C:10C3H         LINE#         51
  C:10C5H         LINE#         52
  -------         ENDPROC       CH554UART1RCVBYTE
  -------         PROC          _CH554UART1SENDBYTE
  D:0007H         SYMBOL        SendDat
  C:10C6H         LINE#         61
  C:10C6H         LINE#         62
  C:10C6H         LINE#         63
  C:10C8H         LINE#         64
  C:10CBH         LINE#         65
  C:10CDH         LINE#         66
  -------         ENDPROC       _CH554UART1SENDBYTE
  -------         ENDMOD        UART1

  -------         MODULE        ?C?COPY
  C:0A1AH         PUBLIC        ?C?COPY
  -------         ENDMOD        ?C?COPY

  -------         MODULE        ?C?CLDPTR
  C:0A40H         PUBLIC        ?C?CLDPTR
  -------         ENDMOD        ?C?CLDPTR

  -------         MODULE        ?C?CLDOPTR
  C:0A59H         PUBLIC        ?C?CLDOPTR
  -------         ENDMOD        ?C?CLDOPTR

  -------         MODULE        ?C?IILDX
  C:0A86H         PUBLIC        ?C?IILDX
  -------         ENDMOD        ?C?IILDX

  -------         MODULE        ?C?ULDIV
  C:0AD8H         PUBLIC        ?C?ULDIV
  -------         ENDMOD        ?C?ULDIV

  -------         MODULE        ?C?LSTXDATA
  C:0B6AH         PUBLIC        ?C?LSTXDATA
  -------         ENDMOD        ?C?LSTXDATA

  -------         MODULE        ?C?LSTKXDATA
  C:0B76H         PUBLIC        ?C?LSTKXDATA
  -------         ENDMOD        ?C?LSTKXDATA
BL51 BANKED LINKER/LOCATER V6.22                                                      04/29/2020  12:32:07  PAGE 18



  -------         MODULE        PRINTF
  X:0154H         PUBLIC        ?_PRINTF517?BYTE
  X:0154H         PUBLIC        ?_PRINTF?BYTE
  X:0154H         PUBLIC        ?_SPRINTF517?BYTE
  X:0154H         PUBLIC        ?_SPRINTF?BYTE
  C:0650H         PUBLIC        _PRINTF
  C:0650H         PUBLIC        _PRINTF517
  C:064AH         PUBLIC        _SPRINTF
  C:064AH         PUBLIC        _SPRINTF517
  -------         ENDMOD        PRINTF

  -------         MODULE        ?C?CSTPTR
  C:0BA7H         PUBLIC        ?C?CSTPTR
  -------         ENDMOD        ?C?CSTPTR

  -------         MODULE        ?C?PLDIXDATA
  C:0BB9H         PUBLIC        ?C?PLDIXDATA
  -------         ENDMOD        ?C?PLDIXDATA

  -------         MODULE        ?C?PSTXDATA
  C:0BD0H         PUBLIC        ?C?PSTXDATA
  -------         ENDMOD        ?C?PSTXDATA

  -------         MODULE        ?C?CCASE
  C:0BD9H         PUBLIC        ?C?CCASE
  -------         ENDMOD        ?C?CCASE

  -------         MODULE        PUTCHAR
  C:0FD0H         PUBLIC        _PUTCHAR
  -------         ENDMOD        PUTCHAR

*** WARNING L16: UNCALLED SEGMENT, IGNORED FOR OVERLAY PROCESS
    SEGMENT: ?PR?CH554UART0ALTER?DEBUG

*** WARNING L16: UNCALLED SEGMENT, IGNORED FOR OVERLAY PROCESS
    SEGMENT: ?PR?CH554UART0RCVBYTE?DEBUG

*** WARNING L16: UNCALLED SEGMENT, IGNORED FOR OVERLAY PROCESS
    SEGMENT: ?PR?_CH554UART0SENDBYTE?DEBUG

*** WARNING L16: UNCALLED SEGMENT, IGNORED FOR OVERLAY PROCESS
    SEGMENT: ?PR?_CH554WDTMODESELECT?DEBUG

*** WARNING L16: UNCALLED SEGMENT, IGNORED FOR OVERLAY PROCESS
    SEGMENT: ?PR?_CH554WDTFEED?DEBUG

*** WARNING L16: UNCALLED SEGMENT, IGNORED FOR OVERLAY PROCESS
    SEGMENT: ?PR?_PORT1CFG?GPIO

*** WARNING L16: UNCALLED SEGMENT, IGNORED FOR OVERLAY PROCESS
    SEGMENT: ?PR?_PORT3CFG?GPIO

*** WARNING L16: UNCALLED SEGMENT, IGNORED FOR OVERLAY PROCESS
    SEGMENT: ?PR?GPIOINTERRUPTCFG?GPIO

*** WARNING L16: UNCALLED SEGMENT, IGNORED FOR OVERLAY PROCESS
BL51 BANKED LINKER/LOCATER V6.22                                                      04/29/2020  12:32:07  PAGE 19


    SEGMENT: ?PR?CH554UART1RCVBYTE?UART1

*** WARNING L15: MULTIPLE CALL TO SEGMENT
    SEGMENT: ?PR?PRINTF?PRINTF
    CALLER1: ?PR?GPIOINTERRUPT?GPIO
    CALLER2: ?PR?DEVICEINTERRUPT?CDC

*** WARNING L15: MULTIPLE CALL TO SEGMENT
    SEGMENT: ?PR?PRINTF?PRINTF
    CALLER1: ?PR?DEVICEINTERRUPT?CDC
    CALLER2: ?C_C51STARTUP

Program Size: data=105.3 xdata=347 code=4307
LINK/LOCATE RUN COMPLETE.  11 WARNING(S),  0 ERROR(S)
