BL51 BANKED LINKER/LOCATER V6.22                                                        05/06/2020  18:31:01  PAGE 1


BL51 BANKED LINKER/LOCATER V6.22, INVOKED BY:
C:\KEIL_V5\C51\BIN\BL51.EXE .\Debug.obj, .\GPIO.obj, .\Main.obj, .\TouchKey.obj TO CH554DEMO2 RAMSIZE (256)


MEMORY MODEL: LARGE


INPUT MODULES INCLUDED:
  .\Debug.obj (DEBUG)
  .\GPIO.obj (GPIO)
  .\Main.obj (MAIN)
  .\TouchKey.obj (TOUCHKEY)
  C:\KEIL_V5\C51\LIB\C51L.LIB (?C_STARTUP)
  C:\KEIL_V5\C51\LIB\C51L.LIB (?C?UIDIV)
  C:\KEIL_V5\C51\LIB\C51L.LIB (?C?ULDIV)
  C:\KEIL_V5\C51\LIB\C51L.LIB (?C?LSTXDATA)
  C:\KEIL_V5\C51\LIB\C51L.LIB (?C?LSTKXDATA)
  C:\KEIL_V5\C51\LIB\C51L.LIB (PRINTF)
  C:\KEIL_V5\C51\LIB\C51L.LIB (?C_INIT)
  C:\KEIL_V5\C51\LIB\C51L.LIB (?C?CLDPTR)
  C:\KEIL_V5\C51\LIB\C51L.LIB (?C?CLDOPTR)
  C:\KEIL_V5\C51\LIB\C51L.LIB (?C?CSTPTR)
  C:\KEIL_V5\C51\LIB\C51L.LIB (?C?PLDIXDATA)
  C:\KEIL_V5\C51\LIB\C51L.LIB (?C?PSTXDATA)
  C:\KEIL_V5\C51\LIB\C51L.LIB (?C?CCASE)
  C:\KEIL_V5\C51\LIB\C51L.LIB (PUTCHAR)


LINK MAP OF MODULE:  CH554DEMO2 (DEBUG)


            TYPE    BASE      LENGTH    RELOCATION   SEGMENT NAME
            -----------------------------------------------------

            * * * * * * *   D A T A   M E M O R Y   * * * * * * *
            REG     0000H     0008H     ABSOLUTE     "REG BANK 0"
            REG     0008H     0008H     ABSOLUTE     "REG BANK 1"
            DATA    0010H     000FH     UNIT         _DATA_GROUP_
                    001FH     0001H                  *** GAP ***
            BIT     0020H.0   0003H.3   UNIT         _BIT_GROUP_
                    0023H.3   0000H.5                *** GAP ***
            IDATA   0024H     0001H     UNIT         ?STACK

            * * * * * * *  X D A T A   M E M O R Y  * * * * * * *
            XDATA   0000H     007EH     UNIT         _XDATA_GROUP_
            XDATA   007EH     0017H     UNIT         ?XD?TOUCHKEY

            * * * * * * *   C O D E   M E M O R Y   * * * * * * *
            CODE    0000H     0003H     ABSOLUTE     
            CODE    0003H     0030H     UNIT         ?PR?MAIN?MAIN
            CODE    0033H     0008H     UNIT         ?PR?CH554UART0RCVBYTE?DEBUG
            CODE    003BH     0003H     ABSOLUTE     
            CODE    003EH     0021H     UNIT         ?PR?_TK_SELECTCHANNEL?TOUCHKEY
            CODE    005FH     0004H     UNIT         ?PR?CH554UART0ALTER?DEBUG
            CODE    0063H     0003H     ABSOLUTE     
            CODE    0066H     0365H     UNIT         ?PR?PRINTF?PRINTF
            CODE    03CBH     01FEH     UNIT         ?C?LIB_CODE
            CODE    05C9H     019AH     UNIT         ?PR?TK_MEASURE?TOUCHKEY
BL51 BANKED LINKER/LOCATER V6.22                                                      05/06/2020  18:31:01  PAGE 2


            CODE    0763H     00CAH     UNIT         ?PR?_TK_INIT?TOUCHKEY
            CODE    082DH     00A6H     UNIT         ?PR?TK_INT_ISR?TOUCHKEY
            CODE    08D3H     0095H     UNIT         ?PR?MINITSTDIO?DEBUG
            CODE    0968H     008CH     UNIT         ?C_C51STARTUP
            CODE    09F4H     0059H     UNIT         ?PR?_PORT1CFG?GPIO
            CODE    0A4DH     0059H     UNIT         ?PR?_PORT3CFG?GPIO
            CODE    0AA6H     004CH     UNIT         ?CO?TOUCHKEY
            CODE    0AF2H     002EH     UNIT         ?PR?GPIOINTERRUPT?GPIO
            CODE    0B20H     002CH     UNIT         ?CO?MAIN
            CODE    0B4CH     0027H     UNIT         ?PR?PUTCHAR?PUTCHAR
            CODE    0B73H     0019H     UNIT         ?PR?_MDELAYMS?DEBUG
            CODE    0B8CH     0017H     UNIT         ?PR?_CH554WDTMODESELECT?DEBUG
            CODE    0BA3H     0016H     UNIT         ?PR?_ABS?TOUCHKEY
            CODE    0BB9H     0014H     UNIT         ?C_INITSEG
            CODE    0BCDH     0013H     UNIT         ?CO?GPIO
            CODE    0BE0H     0012H     UNIT         ?PR?CFGFSYS?DEBUG
            CODE    0BF2H     000EH     UNIT         ?PR?_MDELAYUS?DEBUG
            CODE    0C00H     0009H     UNIT         ?PR?GPIOINTERRUPTCFG?GPIO
            CODE    0C09H     0008H     UNIT         ?PR?_CH554UART0SENDBYTE?DEBUG
            CODE    0C11H     0003H     UNIT         ?PR?_CH554WDTFEED?DEBUG



OVERLAY MAP OF MODULE:   CH554DEMO2 (DEBUG)


SEGMENT                                   BIT_GROUP          DATA_GROUP          XDATA_GROUP
  +--> CALLED SEGMENT                  START    LENGTH     START    LENGTH     START    LENGTH
----------------------------------------------------------------------------------------------
?PR?GPIOINTERRUPT?GPIO                 -----    -----      -----    -----      -----    -----
  +--> ?CO?GPIO
  +--> ?PR?PRINTF?PRINTF

?PR?PRINTF?PRINTF                      0022H.2  0001H.1    001AH    0005H      0056H    0028H
  +--> ?PR?PUTCHAR?PUTCHAR

*** NEW ROOT ***************************************************

?PR?TK_INT_ISR?TOUCHKEY                -----    -----      -----    -----      -----    -----
  +--> ?CO?TOUCHKEY
  +--> ?PR?PRINTF?PRINTF
  +--> ?PR?_TK_SELECTCHANNEL?TOUCHKEY

*** NEW ROOT ***************************************************

?C_C51STARTUP                          -----    -----      -----    -----      -----    -----
  +--> ?PR?MAIN?MAIN
  +--> ?C_INITSEG

?PR?MAIN?MAIN                          -----    -----      -----    -----      -----    -----
  +--> ?PR?CFGFSYS?DEBUG
  +--> ?PR?_MDELAYMS?DEBUG
  +--> ?PR?_PORT3CFG?GPIO
  +--> ?PR?MINITSTDIO?DEBUG
  +--> ?CO?MAIN
  +--> ?PR?PRINTF?PRINTF
  +--> ?PR?_TK_INIT?TOUCHKEY
BL51 BANKED LINKER/LOCATER V6.22                                                      05/06/2020  18:31:01  PAGE 3


  +--> ?PR?_TK_SELECTCHANNEL?TOUCHKEY
  +--> ?PR?TK_MEASURE?TOUCHKEY

?PR?_MDELAYMS?DEBUG                    -----    -----      -----    -----      -----    -----
  +--> ?PR?_MDELAYUS?DEBUG

?PR?MINITSTDIO?DEBUG                   -----    -----      -----    -----      0050H    0005H

?PR?_TK_INIT?TOUCHKEY                  -----    -----      -----    -----      0050H    0004H
  +--> ?PR?_TK_SELECTCHANNEL?TOUCHKEY
  +--> ?CO?TOUCHKEY
  +--> ?PR?PRINTF?PRINTF

?PR?TK_MEASURE?TOUCHKEY                -----    -----      -----    -----      0050H    0006H
  +--> ?PR?_TK_SELECTCHANNEL?TOUCHKEY
  +--> ?PR?_ABS?TOUCHKEY
  +--> ?CO?TOUCHKEY
  +--> ?PR?PRINTF?PRINTF



SYMBOL TABLE OF MODULE:  CH554DEMO2 (DEBUG)

  VALUE           TYPE          NAME
  ----------------------------------

  -------         MODULE        DEBUG
  C:0000H         SYMBOL        _ICE_DUMMY_
  D:0090H         PUBLIC        P1
  D:00B0H         PUBLIC        P3
  C:0B8CH         PUBLIC        _CH554WDTModeSelect
  C:08D3H         PUBLIC        mInitSTDIO
  D:00E8H         PUBLIC        IE_EX
  D:00A8H         PUBLIC        IE
  C:0C11H         PUBLIC        _CH554WDTFeed
  C:005FH         PUBLIC        CH554UART0Alter
  D:00B8H         PUBLIC        IP
  B:0098H.0       PUBLIC        RI
  B:0098H.1       PUBLIC        TI
  D:00FFH         PUBLIC        WDOG_COUNT
  D:00B9H         PUBLIC        CLOCK_CFG
  C:0B73H         PUBLIC        _mDelaymS
  D:00D8H         PUBLIC        USB_INT_FG
  C:0BF2H         PUBLIC        _mDelayuS
  B:00C8H.5       PUBLIC        RCLK
  B:00C8H.4       PUBLIC        TCLK
  D:0099H         PUBLIC        SBUF
  D:0087H         PUBLIC        PCON
  D:0098H         PUBLIC        SCON
  D:0089H         PUBLIC        TMOD
  D:0088H         PUBLIC        TCON
  C:0BE0H         PUBLIC        CfgFsys
  D:00F8H         PUBLIC        SPI0_STAT
  C:0C09H         PUBLIC        _CH554UART0SendByte
  D:008DH         PUBLIC        TH1
  B:0098H.7       PUBLIC        SM0
  B:0098H.6       PUBLIC        SM1
BL51 BANKED LINKER/LOCATER V6.22                                                      05/06/2020  18:31:01  PAGE 4


  B:0098H.5       PUBLIC        SM2
  B:0088H.6       PUBLIC        TR1
  C:0033H         PUBLIC        CH554UART0RcvByte
  D:0080H         PUBLIC        ADC_CTRL
  D:00A1H         PUBLIC        SAFE_MOD
  D:00B1H         PUBLIC        GLOBAL_CFG
  D:00C0H         PUBLIC        SCON1
  B:0098H.4       PUBLIC        REN
  D:00C9H         PUBLIC        T2MOD
  D:00C8H         PUBLIC        T2CON
  D:00C6H         PUBLIC        PIN_FUNC
  D:00D0H         PUBLIC        PSW
  -------         PROC          CFGFSYS
  C:0BE0H         LINE#         25
  C:0BE0H         LINE#         26
  C:0BE0H         LINE#         33
  C:0BE3H         LINE#         34
  C:0BE6H         LINE#         42
  C:0BEEH         LINE#         56
  C:0BF1H         LINE#         57
  -------         ENDPROC       CFGFSYS
  -------         PROC          _MDELAYUS
  D:0006H         SYMBOL        n
  C:0BF2H         LINE#         66
  C:0BF2H         LINE#         67
  C:0BF2H         LINE#         79
  C:0BF6H         LINE#         80
  C:0BF8H         LINE#         101
  C:0BFDH         LINE#         102
  C:0BFFH         LINE#         103
  -------         ENDPROC       _MDELAYUS
  -------         PROC          _MDELAYMS
  D:0004H         SYMBOL        n
  C:0B73H         LINE#         112
  C:0B79H         LINE#         113
  C:0B79H         LINE#         114
  C:0B7DH         LINE#         119
  C:0B84H         LINE#         121
  C:0B89H         LINE#         122
  C:0B8BH         LINE#         123
  -------         ENDPROC       _MDELAYMS
  -------         PROC          CH554UART0ALTER
  C:005FH         LINE#         132
  C:005FH         LINE#         133
  C:005FH         LINE#         134
  C:0062H         LINE#         135
  -------         ENDPROC       CH554UART0ALTER
  -------         PROC          MINITSTDIO
  -------         DO            
  X:0050H         SYMBOL        x
  X:0054H         SYMBOL        x2
  -------         ENDDO         
  C:08D3H         LINE#         145
  C:08D3H         LINE#         146
  C:08D3H         LINE#         150
  C:08D5H         LINE#         151
  C:08D7H         LINE#         152
BL51 BANKED LINKER/LOCATER V6.22                                                      05/06/2020  18:31:01  PAGE 5


  C:08D9H         LINE#         154
  C:08DBH         LINE#         155
  C:08DDH         LINE#         156
  C:08E0H         LINE#         157
  C:08EAH         LINE#         158
  C:0906H         LINE#         159
  C:0923H         LINE#         160
  C:094BH         LINE#         162
  C:0953H         LINE#         163
  C:0956H         LINE#         164
  C:0961H         LINE#         165
  C:0963H         LINE#         166
  C:0965H         LINE#         167
  C:0967H         LINE#         168
  -------         ENDPROC       MINITSTDIO
  -------         PROC          CH554UART0RCVBYTE
  C:0033H         LINE#         177
  C:0033H         LINE#         178
  C:0033H         LINE#         179
  C:0036H         LINE#         180
  C:0038H         LINE#         181
  C:003AH         LINE#         182
  -------         ENDPROC       CH554UART0RCVBYTE
  -------         PROC          _CH554UART0SENDBYTE
  D:0007H         SYMBOL        SendDat
  C:0C09H         LINE#         191
  C:0C09H         LINE#         192
  C:0C09H         LINE#         193
  C:0C0BH         LINE#         194
  C:0C0EH         LINE#         195
  C:0C10H         LINE#         196
  -------         ENDPROC       _CH554UART0SENDBYTE
  -------         PROC          _CH554WDTMODESELECT
  D:0007H         SYMBOL        mode
  C:0B8CH         LINE#         207
  C:0B8CH         LINE#         208
  C:0B8CH         LINE#         209
  C:0B8FH         LINE#         210
  C:0B92H         LINE#         211
  C:0B95H         LINE#         212
  C:0B98H         LINE#         213
  C:0B9AH         LINE#         214
  C:0B9DH         LINE#         215
  C:0BA0H         LINE#         216
  C:0BA2H         LINE#         217
  -------         ENDPROC       _CH554WDTMODESELECT
  -------         PROC          _CH554WDTFEED
  D:0007H         SYMBOL        tim
  C:0C11H         LINE#         228
  C:0C11H         LINE#         229
  C:0C11H         LINE#         230
  C:0C13H         LINE#         231
  -------         ENDPROC       _CH554WDTFEED
  -------         ENDMOD        DEBUG

  -------         MODULE        GPIO
  C:0000H         SYMBOL        _ICE_DUMMY_
BL51 BANKED LINKER/LOCATER V6.22                                                      05/06/2020  18:31:01  PAGE 6


  D:0090H         PUBLIC        P1
  D:00B0H         PUBLIC        P3
  C:0AF2H         PUBLIC        GPIOInterrupt
  D:00E8H         PUBLIC        IE_EX
  D:00A8H         PUBLIC        IE
  C:0C00H         PUBLIC        GPIOInterruptCfg
  D:00B8H         PUBLIC        IP
  D:00C7H         PUBLIC        GPIO_IE
  B:00E8H.6       PUBLIC        IE_GPIO
  D:00D8H         PUBLIC        USB_INT_FG
  D:0098H         PUBLIC        SCON
  D:0088H         PUBLIC        TCON
  D:0092H         PUBLIC        P1_MOD_OC
  D:0096H         PUBLIC        P3_MOD_OC
  D:00F8H         PUBLIC        SPI0_STAT
  D:0093H         PUBLIC        P1_DIR_PU
  D:0097H         PUBLIC        P3_DIR_PU
  D:0080H         PUBLIC        ADC_CTRL
  D:00C0H         PUBLIC        SCON1
  D:00C8H         PUBLIC        T2CON
  C:09F4H         PUBLIC        _Port1Cfg
  C:0A4DH         PUBLIC        _Port3Cfg
  D:00C6H         PUBLIC        PIN_FUNC
  D:00D0H         PUBLIC        PSW
  -------         PROC          _PORT1CFG
  D:0007H         SYMBOL        Mode
  D:0005H         SYMBOL        Pin
  C:09F4H         LINE#         28
  C:09F4H         LINE#         29
  C:09F4H         LINE#         30
  C:0A02H         LINE#         31
  C:0A02H         LINE#         32
  C:0A11H         LINE#         33
  C:0A13H         LINE#         34
  C:0A14H         LINE#         35
  C:0A14H         LINE#         36
  C:0A24H         LINE#         37
  C:0A24H         LINE#         38
  C:0A26H         LINE#         39
  C:0A26H         LINE#         40
  C:0A35H         LINE#         41
  C:0A39H         LINE#         42
  C:0A3AH         LINE#         43
  C:0A3AH         LINE#         44
  C:0A49H         LINE#         45
  C:0A4CH         LINE#         46
  C:0A4CH         LINE#         47
  C:0A4CH         LINE#         48
  C:0A4CH         LINE#         49
  C:0A4CH         LINE#         50
  -------         ENDPROC       _PORT1CFG
  -------         PROC          _PORT3CFG
  D:0007H         SYMBOL        Mode
  D:0005H         SYMBOL        Pin
  C:0A4DH         LINE#         63
  C:0A4DH         LINE#         64
  C:0A4DH         LINE#         65
BL51 BANKED LINKER/LOCATER V6.22                                                      05/06/2020  18:31:01  PAGE 7


  C:0A5BH         LINE#         66
  C:0A5BH         LINE#         67
  C:0A6AH         LINE#         68
  C:0A6CH         LINE#         69
  C:0A6DH         LINE#         70
  C:0A6DH         LINE#         71
  C:0A7DH         LINE#         72
  C:0A7DH         LINE#         73
  C:0A7FH         LINE#         74
  C:0A7FH         LINE#         75
  C:0A8EH         LINE#         76
  C:0A92H         LINE#         77
  C:0A93H         LINE#         78
  C:0A93H         LINE#         79
  C:0AA2H         LINE#         80
  C:0AA5H         LINE#         81
  C:0AA5H         LINE#         82
  C:0AA5H         LINE#         83
  C:0AA5H         LINE#         84
  C:0AA5H         LINE#         85
  -------         ENDPROC       _PORT3CFG
  -------         PROC          GPIOINTERRUPTCFG
  C:0C00H         LINE#         94
  C:0C00H         LINE#         95
  C:0C00H         LINE#         96
  C:0C03H         LINE#         99
  C:0C06H         LINE#         103
  C:0C08H         LINE#         104
  -------         ENDPROC       GPIOINTERRUPTCFG
  -------         PROC          GPIOINTERRUPT
  C:0AF2H         LINE#         111
  C:0AFFH         LINE#         114
  C:0B15H         LINE#         116
  -------         ENDPROC       GPIOINTERRUPT
  -------         ENDMOD        GPIO

  -------         MODULE        MAIN
  C:0000H         SYMBOL        _ICE_DUMMY_
  D:0090H         PUBLIC        P1
  D:00B0H         PUBLIC        P3
  D:00E8H         PUBLIC        IE_EX
  D:00A8H         PUBLIC        IE
  D:00B8H         PUBLIC        IP
  D:00D8H         PUBLIC        USB_INT_FG
  C:0003H         PUBLIC        main
  D:0098H         PUBLIC        SCON
  D:0088H         PUBLIC        TCON
  D:00F8H         PUBLIC        SPI0_STAT
  D:0080H         PUBLIC        ADC_CTRL
  D:00C0H         PUBLIC        SCON1
  D:00C8H         PUBLIC        T2CON
  D:00D0H         PUBLIC        PSW
  -------         PROC          MAIN
  C:0003H         LINE#         36
  C:0003H         LINE#         37
  C:0003H         LINE#         38
  C:0006H         LINE#         39
BL51 BANKED LINKER/LOCATER V6.22                                                      05/06/2020  18:31:01  PAGE 8


  C:000DH         LINE#         41
  C:0014H         LINE#         43
  C:0017H         LINE#         44
  C:0020H         LINE#         46
  C:0029H         LINE#         48
  C:002EH         LINE#         54
  C:002EH         LINE#         55
  C:002EH         LINE#         60
  C:0031H         LINE#         63
  -------         ENDPROC       MAIN
  -------         ENDMOD        MAIN

  -------         MODULE        TOUCHKEY
  C:0000H         SYMBOL        _ICE_DUMMY_
  D:0090H         PUBLIC        P1
  D:00B0H         PUBLIC        P3
  D:00E8H         PUBLIC        IE_EX
  D:00A8H         PUBLIC        IE
  C:0763H         PUBLIC        _TK_Init
  D:00B8H         PUBLIC        IP
  C:082DH         PUBLIC        TK_int_ISR
  C:003EH         PUBLIC        _TK_SelectChannel
  D:00D8H         PUBLIC        USB_INT_FG
  X:007FH         PUBLIC        Key_DataBuf
  B:00E8H.1       PUBLIC        IE_TKEY
  X:0087H         PUBLIC        Key_FreeBuf
  D:0098H         PUBLIC        SCON
  D:0088H         PUBLIC        TCON
  D:0092H         PUBLIC        P1_MOD_OC
  D:00F8H         PUBLIC        SPI0_STAT
  D:0093H         PUBLIC        P1_DIR_PU
  B:00B0H.3       PUBLIC        LED
  D:00C3H         PUBLIC        TKEY_CTRL
  C:0BA3H         PUBLIC        _ABS
  C:05C9H         PUBLIC        TK_Measure
  D:0080H         PUBLIC        ADC_CTRL
  D:00C0H         PUBLIC        SCON1
  D:00C8H         PUBLIC        T2CON
  X:008FH         PUBLIC        Press_Flag
  D:00C4H         PUBLIC        TKEY_DAT
  D:00D0H         PUBLIC        PSW
  X:0090H         PUBLIC        TK_Code
  X:0094H         PUBLIC        Touch_IN
  -------         PROC          _TK_SELECTCHANNEL
  D:0007H         SYMBOL        ch
  C:003EH         LINE#         49
  C:003EH         LINE#         50
  C:003EH         LINE#         51
  C:0044H         LINE#         52
  C:0044H         LINE#         53
  C:0059H         LINE#         54
  C:005CH         LINE#         55
  C:005CH         LINE#         57
  C:005EH         LINE#         58
  -------         ENDPROC       _TK_SELECTCHANNEL
  -------         PROC          _TK_INIT
  D:0007H         SYMBOL        channel
BL51 BANKED LINKER/LOCATER V6.22                                                      05/06/2020  18:31:01  PAGE 9


  D:0005H         SYMBOL        queryFreq
  X:0050H         SYMBOL        ie
  -------         DO            
  X:0051H         SYMBOL        i
  D:0005H         SYMBOL        j
  X:0052H         SYMBOL        sum
  D:0006H         SYMBOL        OverTime
  -------         ENDDO         
  C:0763H         LINE#         68
  C:0768H         LINE#         69
  C:0768H         LINE#         74
  C:076DH         LINE#         75
  C:076DH         LINE#         76
  C:0770H         LINE#         77
  C:0770H         LINE#         79
  C:0774H         LINE#         80
  C:0776H         LINE#         82
  C:0779H         LINE#         83
  C:0779H         LINE#         84
  C:077CH         LINE#         85
  C:077CH         LINE#         89
  C:078EH         LINE#         90
  C:078EH         LINE#         92
  C:0793H         LINE#         93
  C:0795H         LINE#         94
  C:0798H         LINE#         96
  C:079FH         LINE#         97
  C:079FH         LINE#         98
  C:07A2H         LINE#         99
  C:07A7H         LINE#         100
  C:07A7H         LINE#         101
  C:07AFH         LINE#         102
  C:07AFH         LINE#         103
  C:07B2H         LINE#         104
  C:07B2H         LINE#         105
  C:07B2H         LINE#         106
  C:07C0H         LINE#         107
  C:07C2H         LINE#         108
  C:07E6H         LINE#         109
  C:0810H         LINE#         110
  C:0819H         LINE#         111
  C:0822H         LINE#         112
  C:0828H         LINE#         113
  C:0828H         LINE#         114
  C:082AH         LINE#         115
  C:082AH         LINE#         117
  C:082CH         LINE#         118
  -------         ENDPROC       _TK_INIT
  -------         PROC          _ABS
  D:0006H         SYMBOL        a
  D:0004H         SYMBOL        b
  C:0BA3H         LINE#         129
  C:0BA3H         LINE#         130
  C:0BA3H         LINE#         131
  C:0BAAH         LINE#         132
  C:0BAAH         LINE#         133
  C:0BB1H         LINE#         134
BL51 BANKED LINKER/LOCATER V6.22                                                      05/06/2020  18:31:01  PAGE 10


  C:0BB1H         LINE#         136
  C:0BB1H         LINE#         137
  C:0BB8H         LINE#         138
  C:0BB8H         LINE#         139
  -------         ENDPROC       _ABS
  -------         PROC          TK_MEASURE
  -------         DO            
  X:0050H         SYMBOL        i
  D:0001H         SYMBOL        j
  X:0051H         SYMBOL        num
  X:0052H         SYMBOL        err
  D:0004H         SYMBOL        sum
  D:0006H         SYMBOL        OverTime
  X:0054H         SYMBOL        KeyData
  -------         ENDDO         
  C:05C9H         LINE#         150
  C:05C9H         LINE#         151
  C:05C9H         LINE#         157
  C:05DBH         LINE#         158
  C:05DBH         LINE#         159
  C:05DEH         LINE#         160
  C:05E0H         LINE#         161
  C:05E3H         LINE#         162
  C:05F6H         LINE#         164
  C:05FDH         LINE#         165
  C:05FDH         LINE#         166
  C:0600H         LINE#         167
  C:0605H         LINE#         168
  C:0605H         LINE#         169
  C:060DH         LINE#         170
  C:060DH         LINE#         171
  C:0610H         LINE#         172
  C:0610H         LINE#         173
  C:0610H         LINE#         174
  C:0618H         LINE#         175
  C:061AH         LINE#         176
  C:063CH         LINE#         181
  C:0669H         LINE#         182
  C:0671H         LINE#         183
  C:0671H         LINE#         184
  C:0691H         LINE#         185
  C:0691H         LINE#         186
  C:06C2H         LINE#         187
  C:06C4H         LINE#         188
  C:06C4H         LINE#         189
  C:06DFH         LINE#         190
  C:06E1H         LINE#         191
  C:06F0H         LINE#         192
  C:06F0H         LINE#         193
  C:0710H         LINE#         194
  C:0710H         LINE#         195
  C:0729H         LINE#         196
  C:0757H         LINE#         197
  C:0757H         LINE#         198
  C:0757H         LINE#         199
  C:0760H         LINE#         202
  C:0762H         LINE#         203
BL51 BANKED LINKER/LOCATER V6.22                                                      05/06/2020  18:31:01  PAGE 11


  -------         ENDPROC       TK_MEASURE
  -------         PROC          TK_INT_ISR
  -------         DO            
  X:007EH         SYMBOL        ch
  D:000CH         SYMBOL        KeyData
  -------         ENDDO         
  C:082DH         LINE#         213
  C:083AH         LINE#         217
  C:083EH         LINE#         219
  C:0860H         LINE#         220
  C:0860H         LINE#         221
  C:0883H         LINE#         222
  C:0883H         LINE#         224
  C:08B3H         LINE#         226
  C:08BEH         LINE#         227
  C:08BEH         LINE#         229
  C:08C0H         LINE#         230
  C:08C0H         LINE#         231
  C:08C8H         LINE#         234
  -------         ENDPROC       TK_INT_ISR
  -------         ENDMOD        TOUCHKEY

  -------         MODULE        ?C?UIDIV
  C:03CBH         PUBLIC        ?C?UIDIV
  -------         ENDMOD        ?C?UIDIV

  -------         MODULE        ?C?ULDIV
  C:045CH         PUBLIC        ?C?ULDIV
  -------         ENDMOD        ?C?ULDIV

  -------         MODULE        ?C?LSTXDATA
  C:04EEH         PUBLIC        ?C?LSTXDATA
  -------         ENDMOD        ?C?LSTXDATA

  -------         MODULE        ?C?LSTKXDATA
  C:04FAH         PUBLIC        ?C?LSTKXDATA
  -------         ENDMOD        ?C?LSTKXDATA

  -------         MODULE        PRINTF
  X:0056H         PUBLIC        ?_PRINTF517?BYTE
  X:0056H         PUBLIC        ?_PRINTF?BYTE
  X:0056H         PUBLIC        ?_SPRINTF517?BYTE
  X:0056H         PUBLIC        ?_SPRINTF?BYTE
  C:00D1H         PUBLIC        _PRINTF
  C:00D1H         PUBLIC        _PRINTF517
  C:00CBH         PUBLIC        _SPRINTF
  C:00CBH         PUBLIC        _SPRINTF517
  -------         ENDMOD        PRINTF

  -------         MODULE        ?C?CLDPTR
  C:052BH         PUBLIC        ?C?CLDPTR
  -------         ENDMOD        ?C?CLDPTR

  -------         MODULE        ?C?CLDOPTR
  C:0544H         PUBLIC        ?C?CLDOPTR
  -------         ENDMOD        ?C?CLDOPTR

BL51 BANKED LINKER/LOCATER V6.22                                                      05/06/2020  18:31:01  PAGE 12


  -------         MODULE        ?C?CSTPTR
  C:0571H         PUBLIC        ?C?CSTPTR
  -------         ENDMOD        ?C?CSTPTR

  -------         MODULE        ?C?PLDIXDATA
  C:0583H         PUBLIC        ?C?PLDIXDATA
  -------         ENDMOD        ?C?PLDIXDATA

  -------         MODULE        ?C?PSTXDATA
  C:059AH         PUBLIC        ?C?PSTXDATA
  -------         ENDMOD        ?C?PSTXDATA

  -------         MODULE        ?C?CCASE
  C:05A3H         PUBLIC        ?C?CCASE
  -------         ENDMOD        ?C?CCASE

  -------         MODULE        PUTCHAR
  C:0B4CH         PUBLIC        _PUTCHAR
  -------         ENDMOD        PUTCHAR

*** WARNING L16: UNCALLED SEGMENT, IGNORED FOR OVERLAY PROCESS
    SEGMENT: ?PR?CH554UART0ALTER?DEBUG

*** WARNING L16: UNCALLED SEGMENT, IGNORED FOR OVERLAY PROCESS
    SEGMENT: ?PR?CH554UART0RCVBYTE?DEBUG

*** WARNING L16: UNCALLED SEGMENT, IGNORED FOR OVERLAY PROCESS
    SEGMENT: ?PR?_CH554UART0SENDBYTE?DEBUG

*** WARNING L16: UNCALLED SEGMENT, IGNORED FOR OVERLAY PROCESS
    SEGMENT: ?PR?_CH554WDTMODESELECT?DEBUG

*** WARNING L16: UNCALLED SEGMENT, IGNORED FOR OVERLAY PROCESS
    SEGMENT: ?PR?_CH554WDTFEED?DEBUG

*** WARNING L16: UNCALLED SEGMENT, IGNORED FOR OVERLAY PROCESS
    SEGMENT: ?PR?_PORT1CFG?GPIO

*** WARNING L16: UNCALLED SEGMENT, IGNORED FOR OVERLAY PROCESS
    SEGMENT: ?PR?GPIOINTERRUPTCFG?GPIO

*** WARNING L15: MULTIPLE CALL TO SEGMENT
    SEGMENT: ?PR?PRINTF?PRINTF
    CALLER1: ?PR?GPIOINTERRUPT?GPIO
    CALLER2: ?PR?TK_INT_ISR?TOUCHKEY

*** WARNING L15: MULTIPLE CALL TO SEGMENT
    SEGMENT: ?PR?PRINTF?PRINTF
    CALLER1: ?PR?TK_INT_ISR?TOUCHKEY
    CALLER2: ?C_C51STARTUP

Program Size: data=35.3 xdata=149 code=3092
LINK/LOCATE RUN COMPLETE.  9 WARNING(S),  0 ERROR(S)
